target datalayout = "e-m:e-p270:32:32-p271:32:32-p272:64:64-i64:64-i128:128-f80:128-n8:16:32:64-S128"
target triple = "x86_64-unknown-linux-gnu"

@.str.18 = private unnamed_addr constant [7 x i8] c"%.1fms\00", align 1
@.str.19 = private unnamed_addr constant [7 x i8] c"%lldd \00", align 1
@.str.20 = private unnamed_addr constant [21 x i8] c"%02lld:%02lld:%02lld\00", align 1

; Function Attrs: mustprogress uwtable
define void @_Z14print_durationd(double noundef %fmillis) #4 {
entry:
  %fmillis.addr = alloca double, align 8
  %one_sec = alloca i64, align 8
  %one_min = alloca i64, align 8
  %one_hour = alloca i64, align 8
  %one_day = alloca i64, align 8
  %millis = alloca i64, align 8
  %days = alloca i64, align 8
  %hours = alloca i64, align 8
  %minutes = alloca i64, align 8
  %seconds = alloca i64, align 8
  store double %fmillis, ptr %fmillis.addr, align 8
  %0 = load double, ptr %fmillis.addr, align 8
  %cmp = fcmp olt double %0, 1.000000e+03
  br i1 %cmp, label %if.then, label %if.end

if.then:                                          ; preds = %entry
  %1 = load double, ptr %fmillis.addr, align 8
  %conv = fptrunc double %1 to float
  %conv1 = fpext float %conv to double
  %call = call i32 (ptr, ...) @printf(ptr noundef @.str.18, double noundef %conv1)
  br label %return

if.end:                                           ; preds = %entry
  store i64 1000, ptr %one_sec, align 8
  store i64 60000, ptr %one_min, align 8
  store i64 3600000, ptr %one_hour, align 8
  store i64 86400000, ptr %one_day, align 8
  %2 = load double, ptr %fmillis.addr, align 8
  %conv2 = fptosi double %2 to i64
  store i64 %conv2, ptr %millis, align 8
  %3 = load i64, ptr %millis, align 8
  %div = sdiv i64 %3, 86400000
  store i64 %div, ptr %days, align 8
  %4 = load i64, ptr %millis, align 8
  %5 = load i64, ptr %days, align 8
  %mul = mul nsw i64 %5, 86400000
  %sub = sub nsw i64 %4, %mul
  %div3 = sdiv i64 %sub, 3600000
  store i64 %div3, ptr %hours, align 8
  %6 = load i64, ptr %millis, align 8
  %7 = load i64, ptr %days, align 8
  %mul4 = mul nsw i64 %7, 86400000
  %sub5 = sub nsw i64 %6, %mul4
  %8 = load i64, ptr %hours, align 8
  %mul6 = mul nsw i64 %8, 3600000
  %sub7 = sub nsw i64 %sub5, %mul6
  %div8 = sdiv i64 %sub7, 60000
  store i64 %div8, ptr %minutes, align 8
  %9 = load i64, ptr %millis, align 8
  %10 = load i64, ptr %days, align 8
  %mul9 = mul nsw i64 %10, 86400000
  %sub10 = sub nsw i64 %9, %mul9
  %11 = load i64, ptr %hours, align 8
  %mul11 = mul nsw i64 %11, 3600000
  %sub12 = sub nsw i64 %sub10, %mul11
  %12 = load i64, ptr %minutes, align 8
  %mul13 = mul nsw i64 %12, 60000
  %sub14 = sub nsw i64 %sub12, %mul13
  %div15 = sdiv i64 %sub14, 1000
  store i64 %div15, ptr %seconds, align 8
  %13 = load i64, ptr %days, align 8
  %cmp16 = icmp sgt i64 %13, 0
  br i1 %cmp16, label %if.then17, label %if.end19

if.then17:                                        ; preds = %if.end
  %14 = load i64, ptr %days, align 8
  %call18 = call i32 (ptr, ...) @printf(ptr noundef @.str.19, i64 noundef %14)
  br label %if.end19

if.end19:                                         ; preds = %if.then17, %if.end
  %15 = load i64, ptr %hours, align 8
  %16 = load i64, ptr %minutes, align 8
  %17 = load i64, ptr %seconds, align 8
  %call20 = call i32 (ptr, ...) @printf(ptr noundef @.str.20, i64 noundef %15, i64 noundef %16, i64 noundef %17)
  br label %return

return:                                           ; preds = %if.end19, %if.then
  ret void
}