; Function Attrs: mustprogress nofree nounwind uwtable
define void @_Z14print_durationd(double noundef %fmillis) local_unnamed_addr #18 {
entry:
  %cmp = fcmp olt double %fmillis, 1.000000e+03
  br i1 %cmp, label %if.then, label %if.end

if.then:                                          ; preds = %entry
  %conv = fptrunc double %fmillis to float
  %conv1 = fpext float %conv to double
  %call = tail call i32 (ptr, ...) @printf(ptr noundef nonnull dereferenceable(1) @.str.18, double noundef %conv1)
  br label %return

if.end:                                           ; preds = %entry
  %conv2 = fptosi double %fmillis to i64
  %div = sdiv i64 %conv2, 86400000
  %mul.neg = mul nsw i64 %div, -86400000
  %sub = add i64 %mul.neg, %conv2
  %div3 = sdiv i64 %sub, 3600000
  %mul6.neg = mul nsw i64 %div3, -3600000
  %sub7 = add i64 %mul6.neg, %sub
  %div8 = sdiv i64 %sub7, 60000
  %mul13.neg = mul nsw i64 %div8, -60000
  %sub14 = add i64 %mul13.neg, %sub7
  %div15 = sdiv i64 %sub14, 1000
  %cmp16 = icmp sgt i64 %conv2, 86399999
  br i1 %cmp16, label %if.then17, label %if.end19

if.then17:                                        ; preds = %if.end
  %call18 = tail call i32 (ptr, ...) @printf(ptr noundef nonnull dereferenceable(1) @.str.19, i64 noundef %div)
  br label %if.end19

if.end19:                                         ; preds = %if.then17, %if.end
  %call20 = tail call i32 (ptr, ...) @printf(ptr noundef nonnull dereferenceable(1) @.str.20, i64 noundef %div3, i64 noundef %div8, i64 noundef %div15)
  br label %return

return:                                           ; preds = %if.end19, %if.then
  ret void
}